; Function Attrs: mustprogress uwtable
define hidden noundef ptr @_ZNK4cvc58internal6theory5arith6linear24SimplexDecisionProcedure24generateConflictForBasicEj(ptr noundef nonnull readonly align 8 captures(none) dereferenceable(304) %0, i32 noundef %1) local_unnamed_addr #3 align 2 personality ptr @__gxx_personality_v0 {
  %3 = alloca %"class.cvc5::internal::FatalStream", align 1
  %4 = getelementptr inbounds nuw i8, ptr %0, i64 128
  %5 = load ptr, ptr %4, align 8, !tbaa !308
  %6 = getelementptr inbounds nuw i8, ptr %5, i64 48
  %7 = zext i32 %1 to i64
  %8 = load ptr, ptr %6, align 8, !tbaa !309
  %9 = getelementptr inbounds nuw %"class.cvc5::internal::theory::arith::linear::ArithVariables::VarInfo", ptr %8, i64 %7, i32 5
  %10 = load i32, ptr %9, align 8, !tbaa !312
  %11 = icmp sgt i32 %10, -1
  br i1 %11, label %12, label %23

12:                                               ; preds = %2
  %13 = getelementptr inbounds nuw %"class.cvc5::internal::theory::arith::linear::ArithVariables::VarInfo", ptr %8, i64 %7, i32 6
  %14 = load i32, ptr %13, align 4, !tbaa !320
  %15 = icmp sgt i32 %14, 0
  br i1 %15, label %23, label %16

16:                                               ; preds = %12
  call void @llvm.lifetime.start.p0(i64 1, ptr nonnull %3) #25
  call void @_ZN4cvc58internal11FatalStreamC1EPKcS3_i(ptr noundef nonnull align 1 dereferenceable(1) %3, ptr noundef nonnull @__PRETTY_FUNCTION__._ZNK4cvc58internal6theory5arith6linear24SimplexDecisionProcedure24generateConflictForBasicEj, ptr noundef nonnull @.str.2, i32 noundef 120)
  %17 = invoke noundef nonnull align 8 dereferenceable(8) ptr @_ZN4cvc58internal11FatalStream6streamEv(ptr noundef nonnull align 1 dereferenceable(1) %3)
          to label %18 unwind label %21

18:                                               ; preds = %16
  %19 = invoke noundef nonnull align 8 dereferenceable(8) ptr @_ZStlsISt11char_traitsIcEERSt13basic_ostreamIcT_ES5_PKc(ptr noundef nonnull align 8 dereferenceable(8) %17, ptr noundef nonnull @.str.3)
          to label %20 unwind label %21

20:                                               ; preds = %18
  call void @_ZN4cvc58internal11FatalStreamD1Ev(ptr noundef nonnull align 1 dereferenceable(1) %3) #24
  unreachable

21:                                               ; preds = %18, %16
  %22 = landingpad { ptr, i32 }
          cleanup
  call void @_ZN4cvc58internal11FatalStreamD1Ev(ptr noundef nonnull align 1 dereferenceable(1) %3) #24
  unreachable

23:                                               ; preds = %12, %2
  %24 = getelementptr inbounds nuw i8, ptr %0, i64 120
  %25 = load ptr, ptr %24, align 8, !tbaa !319
  %26 = getelementptr inbounds nuw i8, ptr %0, i64 168
  %27 = load ptr, ptr %26, align 8, !tbaa !74
  %28 = tail call noundef ptr @_ZNK4cvc58internal6theory5arith6linear20LinearEqualityModule21minimallyWeakConflictEbjRNS3_21FarkasConflictBuilderE(ptr noundef nonnull align 8 dereferenceable(456) %25, i1 noundef zeroext %11, i32 noundef %1, ptr noundef nonnull align 8 dereferenceable(58) %27)
  ret ptr %28
}